target datalayout = "e-m:e-p270:32:32-p271:32:32-p272:64:64-i64:64-i128:128-f80:128-n8:16:32:64-S128"
target triple = "x86_64-pc-linux-gnu"

%"class.std::function" = type { %"class.std::_Function_base", ptr }
%"class.std::_Function_base" = type { %"union.std::_Any_data", ptr }
%"union.std::_Any_data" = type { %"union.std::_Nocopy_types" }
%"union.std::_Nocopy_types" = type { { i64, i64 } }
%class.anon.13 = type { i8 }

; Function Attrs: mustprogress nounwind uwtable
define linkonce_odr hidden noundef ptr @_ZNSt9_Any_data9_M_accessEv(ptr noundef nonnull align 8 dereferenceable(16) %0) #4 comdat align 2 {
  %2 = alloca ptr, align 8
  store ptr %0, ptr %2, align 8, !tbaa !30
  %3 = load ptr, ptr %2, align 8
  %4 = getelementptr inbounds [16 x i8], ptr %3, i64 0, i64 0
  ret ptr %4
}

; Function Attrs: mustprogress nounwind uwtable
define internal void @"_ZNSt14_Function_base13_Base_managerIZN19OpenColorIO_v2_5dev11CANON_CLOG319GenerateOpsToLinearERNS1_10OpRcPtrVecEE3$_0E9_M_createIRS5_EEvRSt9_Any_dataOT_St17integral_constantIbLb1EE"(ptr noundef nonnull align 8 dereferenceable(16) %0, ptr noundef nonnull align 1 dereferenceable(1) %1) #4 align 2 {
  %3 = alloca ptr, align 8
  %4 = alloca ptr, align 8
  store ptr %0, ptr %3, align 8, !tbaa !30
  store ptr %1, ptr %4, align 8, !tbaa !16
  %5 = load ptr, ptr %3, align 8, !tbaa !30
  %6 = call noundef ptr @_ZNSt9_Any_data9_M_accessEv(ptr noundef nonnull align 8 dereferenceable(16) %5) #3
  ret void
}

; Function Attrs: mustprogress nounwind uwtable
define internal void @"_ZNSt14_Function_base13_Base_managerIZN19OpenColorIO_v2_5dev11CANON_CLOG319GenerateOpsToLinearERNS1_10OpRcPtrVecEE3$_0E15_M_init_functorIRS5_EEvRSt9_Any_dataOT_"(ptr noundef nonnull align 8 dereferenceable(16) %0, ptr noundef nonnull align 1 dereferenceable(1) %1) #4 align 2 personality ptr @__gxx_personality_v0 {
  %3 = alloca ptr, align 8
  %4 = alloca ptr, align 8
  store ptr %0, ptr %3, align 8, !tbaa !30
  store ptr %1, ptr %4, align 8, !tbaa !16
  %5 = load ptr, ptr %3, align 8, !tbaa !30
  %6 = load ptr, ptr %4, align 8, !tbaa !16
  invoke void @"_ZNSt14_Function_base13_Base_managerIZN19OpenColorIO_v2_5dev11CANON_CLOG319GenerateOpsToLinearERNS1_10OpRcPtrVecEE3$_0E9_M_createIRS5_EEvRSt9_Any_dataOT_St17integral_constantIbLb1EE"(ptr noundef nonnull align 8 dereferenceable(16) %5, ptr noundef nonnull align 1 dereferenceable(1) %6)
          to label %7 unwind label %8

7:                                                ; preds = %2
  ret void

8:                                                ; preds = %2
  %9 = landingpad { ptr, i32 }
          catch ptr null
  %10 = extractvalue { ptr, i32 } %9, 0
  call void @__clang_call_terminate(ptr %10) #15
  unreachable
}

; Function Attrs: mustprogress nounwind uwtable
define internal noundef zeroext i1 @"_ZNSt14_Function_base13_Base_managerIZN19OpenColorIO_v2_5dev11CANON_CLOG319GenerateOpsToLinearERNS1_10OpRcPtrVecEE3$_0E21_M_not_empty_functionIS5_EEbRKT_"(ptr noundef nonnull align 1 dereferenceable(1) %0) #4 align 2 {
  %2 = alloca ptr, align 8
  store ptr %0, ptr %2, align 8, !tbaa !16
  ret i1 true
}

; Function Attrs: mustprogress nounwind uwtable
define linkonce_odr hidden void @_ZNSt14_Function_baseC2Ev(ptr noundef nonnull align 8 dereferenceable(24) %0) unnamed_addr #4 comdat align 2 {
  %2 = alloca ptr, align 8
  store ptr %0, ptr %2, align 8, !tbaa !27
  %3 = load ptr, ptr %2, align 8
  %4 = getelementptr inbounds nuw %"class.std::_Function_base", ptr %3, i32 0, i32 0
  store ptr null, ptr %4, align 8, !tbaa !29
  %5 = getelementptr inbounds nuw %"class.std::_Function_base", ptr %3, i32 0, i32 1
  store ptr null, ptr %5, align 8, !tbaa !20
  ret void
}

; Function Attrs: mustprogress nounwind uwtable
define linkonce_odr hidden void @_ZNSt14_Function_baseD2Ev(ptr noundef nonnull align 8 dereferenceable(24) %0) unnamed_addr #4 comdat align 2 personality ptr @__gxx_personality_v0 {
  %2 = alloca ptr, align 8
  store ptr %0, ptr %2, align 8, !tbaa !27
  %3 = load ptr, ptr %2, align 8
  %4 = getelementptr inbounds nuw %"class.std::_Function_base", ptr %3, i32 0, i32 1
  %5 = load ptr, ptr %4, align 8, !tbaa !20
  %6 = icmp ne ptr %5, null
  br i1 %6, label %7, label %14

7:                                                ; preds = %1
  %8 = getelementptr inbounds nuw %"class.std::_Function_base", ptr %3, i32 0, i32 1
  %9 = load ptr, ptr %8, align 8, !tbaa !20
  %10 = getelementptr inbounds nuw %"class.std::_Function_base", ptr %3, i32 0, i32 0
  %11 = getelementptr inbounds nuw %"class.std::_Function_base", ptr %3, i32 0, i32 0
  %12 = invoke noundef zeroext i1 %9(ptr noundef nonnull align 8 dereferenceable(16) %10, ptr noundef nonnull align 8 dereferenceable(16) %11, i32 noundef 3)
          to label %13 unwind label %15

13:                                               ; preds = %7
  br label %14

14:                                               ; preds = %13, %1
  ret void

15:                                               ; preds = %7
  %16 = landingpad { ptr, i32 }
          catch ptr null
  %17 = extractvalue { ptr, i32 } %16, 0
  call void @__clang_call_terminate(ptr %17) #15
  unreachable
}

; Function Attrs: mustprogress nounwind uwtable
define internal void @"_ZNSt8functionIFfdEEC2IRZN19OpenColorIO_v2_5dev11CANON_CLOG319GenerateOpsToLinearERNS3_10OpRcPtrVecEE3$_0vEEOT_"(ptr noundef nonnull align 8 dereferenceable(32) %0, ptr noundef nonnull align 1 dereferenceable(1) %1) unnamed_addr #4 align 2 {
  %3 = alloca ptr, align 8
  %4 = alloca ptr, align 8
  store ptr %0, ptr %3, align 8, !tbaa !14
  store ptr %1, ptr %4, align 8, !tbaa !16
  %5 = load ptr, ptr %3, align 8
  %6 = getelementptr inbounds i8, ptr %5, i64 0
  call void @llvm.memset.p0.i64(ptr align 8 %6, i8 0, i64 24, i1 false)
  call void @_ZNSt14_Function_baseC2Ev(ptr noundef nonnull align 8 dereferenceable(24) %5) #3
  %7 = getelementptr inbounds nuw %"class.std::function", ptr %5, i32 0, i32 1
  store ptr null, ptr %7, align 8, !tbaa !17
  %8 = load ptr, ptr %4, align 8, !tbaa !16
  %9 = call noundef zeroext i1 @"_ZNSt14_Function_base13_Base_managerIZN19OpenColorIO_v2_5dev11CANON_CLOG319GenerateOpsToLinearERNS1_10OpRcPtrVecEE3$_0E21_M_not_empty_functionIS5_EEbRKT_"(ptr noundef nonnull align 1 dereferenceable(1) %8) #3
  br i1 %9, label %10, label %15

10:                                               ; preds = %2
  %11 = getelementptr inbounds nuw %"class.std::_Function_base", ptr %5, i32 0, i32 0
  %12 = load ptr, ptr %4, align 8, !tbaa !16
  call void @"_ZNSt14_Function_base13_Base_managerIZN19OpenColorIO_v2_5dev11CANON_CLOG319GenerateOpsToLinearERNS1_10OpRcPtrVecEE3$_0E15_M_init_functorIRS5_EEvRSt9_Any_dataOT_"(ptr noundef nonnull align 8 dereferenceable(16) %11, ptr noundef nonnull align 1 dereferenceable(1) %12) #3
  %13 = getelementptr inbounds nuw %"class.std::function", ptr %5, i32 0, i32 1
  store ptr @"_ZNSt17_Function_handlerIFfdEZN19OpenColorIO_v2_5dev11CANON_CLOG319GenerateOpsToLinearERNS1_10OpRcPtrVecEE3$_0E9_M_invokeERKSt9_Any_dataOd", ptr %13, align 8, !tbaa !17
  %14 = getelementptr inbounds nuw %"class.std::_Function_base", ptr %5, i32 0, i32 1
  store ptr @"_ZNSt17_Function_handlerIFfdEZN19OpenColorIO_v2_5dev11CANON_CLOG319GenerateOpsToLinearERNS1_10OpRcPtrVecEE3$_0E10_M_managerERSt9_Any_dataRKS7_St18_Manager_operation", ptr %14, align 8, !tbaa !20
  br label %15

15:                                               ; preds = %10, %2
  ret void
}

; Function Attrs: mustprogress uwtable
define hidden void @_ZN19OpenColorIO_v2_5dev11CANON_CLOG319GenerateOpsToLinearERNS_10OpRcPtrVecE(ptr noundef nonnull align 8 dereferenceable(144) %0) #6 personality ptr @__gxx_personality_v0 {
  %2 = alloca ptr, align 8
  %3 = alloca %class.anon.13, align 1
  %4 = alloca %"class.std::function", align 8
  %5 = alloca ptr, align 8
  %6 = alloca i32, align 4
  store ptr %0, ptr %2, align 8, !tbaa !12
  call void @llvm.lifetime.start.p0(i64 1, ptr %3) #3
  %7 = load ptr, ptr %2, align 8, !tbaa !12
  call void @"_ZNSt8functionIFfdEEC2IRZN19OpenColorIO_v2_5dev11CANON_CLOG319GenerateOpsToLinearERNS3_10OpRcPtrVecEE3$_0vEEOT_"(ptr noundef nonnull align 8 dereferenceable(32) %4, ptr noundef nonnull align 1 dereferenceable(1) %3) #3
  invoke void @_ZN19OpenColorIO_v2_5dev9CreateLutERNS_10OpRcPtrVecEmSt8functionIFfdEE(ptr noundef nonnull align 8 dereferenceable(144) %7, i64 noundef 4096, ptr noundef %4)
          to label %8 unwind label %9

8:                                                ; preds = %1
  call void @_ZNSt14_Function_baseD2Ev(ptr noundef nonnull align 8 dereferenceable(32) %4) #3
  call void @llvm.lifetime.end.p0(i64 1, ptr %3) #3
  ret void

9:                                                ; preds = %1
  %10 = landingpad { ptr, i32 }
          cleanup
  %11 = extractvalue { ptr, i32 } %10, 0
  store ptr %11, ptr %5, align 8
  %12 = extractvalue { ptr, i32 } %10, 1
  store i32 %12, ptr %6, align 4
  call void @_ZNSt14_Function_baseD2Ev(ptr noundef nonnull align 8 dereferenceable(32) %4) #3
  call void @llvm.lifetime.end.p0(i64 1, ptr %3) #3
  br label %13

13:                                               ; preds = %9
  %14 = load ptr, ptr %5, align 8
  %15 = load i32, ptr %6, align 4
  %16 = insertvalue { ptr, i32 } poison, ptr %14, 0
  %17 = insertvalue { ptr, i32 } %16, i32 %15, 1
  resume { ptr, i32 } %17
}